	.section	__TEXT,__text,regular,pure_instructions
	.build_version macos, 14, 0	sdk_version 15, 2
	.intel_syntax noprefix
	.file	1 "/Users/ivan/prog/sem3/cvm/lab6" "01.c"
	.globl	_main                           ## -- Begin function main
	.p2align	4, 0x90
_main:                                  ## @main
Lfunc_begin0:
	.loc	1 6 0                           ## 01.c:6:0
	.cfi_startproc
## %bb.0:
	push	ebp
	.cfi_def_cfa_offset 8
	.cfi_offset ebp, -8
	mov	ebp, esp
	.cfi_def_cfa_register ebp
	push	edi
	push	esi
	sub	esp, 32
	.cfi_offset esi, -16
	.cfi_offset edi, -12
	call	L0$pb
L0$pb:
	pop	eax
	mov	dword ptr [ebp - 20], eax       ## 4-byte Spill
	mov	dword ptr [ebp - 12], 0
Ltmp0:
	.loc	1 8 7 prologue_end              ## 01.c:8:7
	mov	ecx, dword ptr [eax + L_i$non_lazy_ptr-L0$pb]
	mov	dword ptr [ecx], 0
	.loc	1 9 7                           ## 01.c:9:7
	mov	eax, dword ptr [eax + L_cMas$non_lazy_ptr-L0$pb]
	mov	dword ptr [ebp - 16], eax
LBB0_1:                                 ## =>This Inner Loop Header: Depth=1
	.loc	1 0 7 is_stmt 0                 ## 01.c:0:7
	mov	eax, dword ptr [ebp - 20]       ## 4-byte Reload
Ltmp1:
	.loc	1 13 16 is_stmt 1               ## 01.c:13:16
	mov	eax, dword ptr [eax + L_i$non_lazy_ptr-L0$pb]
	cmp	dword ptr [eax], 3
	.loc	1 13 21 is_stmt 0               ## 01.c:13:21
	jbe	LBB0_4
## %bb.2:                               ##   in Loop: Header=BB0_1 Depth=1
	.loc	1 0 21                          ## 01.c:0:21
	mov	eax, dword ptr [ebp - 20]       ## 4-byte Reload
	.loc	1 13 27                         ## 01.c:13:27
	mov	eax, dword ptr [eax + L_i$non_lazy_ptr-L0$pb]
	cmp	dword ptr [eax], 6
Ltmp2:
	.loc	1 13 13                         ## 01.c:13:13
	je	LBB0_4
## %bb.3:                               ##   in Loop: Header=BB0_1 Depth=1
	.loc	1 0 13                          ## 01.c:0:13
	mov	eax, dword ptr [ebp - 20]       ## 4-byte Reload
Ltmp3:
	.loc	1 14 23 is_stmt 1               ## 01.c:14:23
	mov	ecx, dword ptr [eax + L_i$non_lazy_ptr-L0$pb]
	mov	ecx, dword ptr [ecx]
	.loc	1 14 21 is_stmt 0               ## 01.c:14:21
	mov	eax, dword ptr [eax + L_i$non_lazy_ptr-L0$pb]
	shl	ecx, 3
	.loc	1 14 26                         ## 01.c:14:26
	or	ecx, 3
	.loc	1 14 14                         ## 01.c:14:14
	mov	eax, dword ptr [ebp - 16]
	.loc	1 14 16                         ## 01.c:14:16
	mov	dword ptr [eax], ecx
	.loc	1 14 13                         ## 01.c:14:13
	jmp	LBB0_5
LBB0_4:                                 ##   in Loop: Header=BB0_1 Depth=1
	.loc	1 0 13                          ## 01.c:0:13
	mov	eax, dword ptr [ebp - 20]       ## 4-byte Reload
	.loc	1 16 26 is_stmt 1               ## 01.c:16:26
	mov	eax, dword ptr [eax + L_i$non_lazy_ptr-L0$pb]
	imul	eax, dword ptr [eax], 25
	.loc	1 16 30 is_stmt 0               ## 01.c:16:30
	mov	ecx, 3
	xor	edx, edx
	div	ecx
	mov	ecx, eax
	.loc	1 16 14                         ## 01.c:16:14
	mov	eax, dword ptr [ebp - 16]
	.loc	1 16 16                         ## 01.c:16:16
	mov	dword ptr [eax], ecx
Ltmp4:
LBB0_5:                                 ##   in Loop: Header=BB0_1 Depth=1
	.loc	1 0 16                          ## 01.c:0:16
	mov	eax, dword ptr [ebp - 20]       ## 4-byte Reload
	.loc	1 18 10 is_stmt 1               ## 01.c:18:10
	mov	ecx, dword ptr [eax + L_i$non_lazy_ptr-L0$pb]
	mov	ecx, dword ptr [ecx]
	mov	edx, dword ptr [eax + L_i$non_lazy_ptr-L0$pb]
	add	ecx, 1
	mov	eax, dword ptr [eax + L_i$non_lazy_ptr-L0$pb]
	mov	dword ptr [eax], ecx
	.loc	1 19 10                         ## 01.c:19:10
	mov	eax, dword ptr [ebp - 16]
	add	eax, 4
	mov	dword ptr [ebp - 16], eax
Ltmp5:
## %bb.6:                               ##   in Loop: Header=BB0_1 Depth=1
	.loc	1 0 10 is_stmt 0                ## 01.c:0:10
	mov	eax, dword ptr [ebp - 20]       ## 4-byte Reload
	.loc	1 20 16 is_stmt 1               ## 01.c:20:16
	mov	eax, dword ptr [eax + L_i$non_lazy_ptr-L0$pb]
	cmp	dword ptr [eax], 9
Ltmp6:
	.loc	1 20 5 is_stmt 0                ## 01.c:20:5
	jb	LBB0_1
Ltmp7:
## %bb.7:
	.loc	1 0 5                           ## 01.c:0:5
	mov	eax, dword ptr [ebp - 20]       ## 4-byte Reload
Ltmp8:
	.loc	1 22 12 is_stmt 1               ## 01.c:22:12
	mov	eax, dword ptr [eax + L_i$non_lazy_ptr-L0$pb]
	mov	dword ptr [eax], 0
LBB0_8:                                 ## =>This Inner Loop Header: Depth=1
	.loc	1 0 12 is_stmt 0                ## 01.c:0:12
	mov	eax, dword ptr [ebp - 20]       ## 4-byte Reload
Ltmp9:
	.loc	1 22 19                         ## 01.c:22:19
	mov	eax, dword ptr [eax + L_i$non_lazy_ptr-L0$pb]
	cmp	dword ptr [eax], 9
Ltmp10:
	.loc	1 22 5                          ## 01.c:22:5
	jae	LBB0_11
## %bb.9:                               ##   in Loop: Header=BB0_8 Depth=1
	.loc	1 0 5                           ## 01.c:0:5
	mov	esi, dword ptr [ebp - 20]       ## 4-byte Reload
Ltmp11:
	.loc	1 23 35 is_stmt 1               ## 01.c:23:35
	mov	eax, dword ptr [esi + L_i$non_lazy_ptr-L0$pb]
	mov	ecx, dword ptr [eax]
	.loc	1 23 43 is_stmt 0               ## 01.c:23:43
	mov	eax, dword ptr [esi + L_i$non_lazy_ptr-L0$pb]
	mov	edx, dword ptr [eax]
	.loc	1 23 38                         ## 01.c:23:38
	mov	eax, dword ptr [esi + L_cMas$non_lazy_ptr-L0$pb]
	mov	edi, dword ptr [esi + L_i$non_lazy_ptr-L0$pb]
	mov	eax, dword ptr [eax + 4*edx]
	.loc	1 23 9                          ## 01.c:23:9
	lea	edx, [esi + L_.str-L0$pb]
	mov	esi, dword ptr [esi + L_cMas$non_lazy_ptr-L0$pb]
	mov	dword ptr [esp], edx
	mov	dword ptr [esp + 4], ecx
	mov	dword ptr [esp + 8], eax
	call	_printf
## %bb.10:                              ##   in Loop: Header=BB0_8 Depth=1
	.loc	1 0 9                           ## 01.c:0:9
	mov	eax, dword ptr [ebp - 20]       ## 4-byte Reload
	.loc	1 22 25 is_stmt 1               ## 01.c:22:25
	mov	ecx, dword ptr [eax + L_i$non_lazy_ptr-L0$pb]
	mov	ecx, dword ptr [ecx]
	mov	edx, dword ptr [eax + L_i$non_lazy_ptr-L0$pb]
	add	ecx, 1
	mov	eax, dword ptr [eax + L_i$non_lazy_ptr-L0$pb]
	mov	dword ptr [eax], ecx
	.loc	1 22 5 is_stmt 0                ## 01.c:22:5
	jmp	LBB0_8
Ltmp12:
LBB0_11:
	.loc	1 25 5 is_stmt 1                ## 01.c:25:5
	xor	eax, eax
	.loc	1 25 5 epilogue_begin is_stmt 0 ## 01.c:25:5
	add	esp, 32
	pop	esi
	pop	edi
	pop	ebp
	ret
Ltmp13:
Lfunc_end0:
	.cfi_endproc
                                        ## -- End function
	.comm	_i,4,2                          ## @i
	.comm	_cMas,40,2                      ## @cMas
	.section	__TEXT,__cstring,cstring_literals
L_.str:                                 ## @.str
	.asciz	"cMas[%u] = %u\n"

	.section	__IMPORT,__pointers,non_lazy_symbol_pointers
L_cMas$non_lazy_ptr:
	.indirect_symbol	_cMas
	.long	0
L_i$non_lazy_ptr:
	.indirect_symbol	_i
	.long	0

.subsections_via_symbols